target datalayout = "e-m:e-p270:32:32-p271:32:32-p272:64:64-i64:64-i128:128-f80:128-n8:16:32:64-S128"
target triple = "x86_64-pc-linux-gnu"

%struct.expert_field = type { i32, i32 }
%struct._packet_info = type { ptr, ptr, i32, i32, %struct.nstime_t, %struct.nstime_t, %struct.nstime_t, i8, ptr, ptr, ptr, ptr, %struct._address, %struct._address, %struct._address, %struct._address, %struct._address, %struct._address, i32, ptr, i8, [3 x i8], %struct.anon, i32, i32, i32, i32, ptr, i8, ptr, ptr, i16, i16, i32, i32, i16, i32, i32, ptr, ptr, ptr, i8, i8, i16, i16, i16, i32, i16, i16, ptr, ptr, ptr, ptr, ptr, i32, i32 }
%struct.nstime_t = type { i64, i32 }
%struct._address = type { i32, i32, ptr, ptr }
%struct.anon = type { i8, [3 x i8] }

@hf_olsr_neighbor_addr = internal global i32 0, align 4
@hf_olsr_neighbor6_addr = internal global i32 0, align 4
@ei_olsr_not_enough_bytes = internal global %struct.expert_field zeroinitializer, align 4
@.str.131 = private unnamed_addr constant [38 x i8] c"Not enough bytes for last Hello entry\00", align 1

; Function Attrs: null_pointer_is_valid sspstrong uwtable
define internal i32 @handle_olsr_hello_rfc(ptr noundef %0, ptr noundef %1, ptr noundef %2, i32 noundef %3, i32 noundef %4) #0 {
  %6 = alloca i32, align 4
  %7 = alloca ptr, align 8
  %8 = alloca ptr, align 8
  %9 = alloca ptr, align 8
  %10 = alloca i32, align 4
  %11 = alloca i32, align 4
  store ptr %0, ptr %7, align 8
  store ptr %1, ptr %8, align 8
  store ptr %2, ptr %9, align 8
  store i32 %3, ptr %10, align 4
  store i32 %4, ptr %11, align 4
  br label %12

12:                                               ; preds = %65, %5
  %13 = load i32, ptr %10, align 4
  %14 = load i32, ptr %11, align 4
  %15 = icmp slt i32 %13, %14
  br i1 %15, label %16, label %66

16:                                               ; preds = %12
  %17 = load i32, ptr %11, align 4
  %18 = load i32, ptr %10, align 4
  %19 = sub i32 %17, %18
  %20 = load ptr, ptr %8, align 8
  %21 = getelementptr inbounds nuw %struct._packet_info, ptr %20, i32 0, i32 16
  %22 = getelementptr inbounds nuw %struct._address, ptr %21, i32 0, i32 1
  %23 = load i32, ptr %22, align 4
  %24 = icmp slt i32 %19, %23
  br i1 %24, label %25, label %35

25:                                               ; preds = %16
  %26 = load ptr, ptr %9, align 8
  %27 = load ptr, ptr %8, align 8
  %28 = load ptr, ptr %7, align 8
  %29 = load i32, ptr %10, align 4
  %30 = load i32, ptr %11, align 4
  %31 = load i32, ptr %10, align 4
  %32 = sub i32 %30, %31
  %33 = call ptr (ptr, ptr, ptr, ptr, i32, i32, ptr, ...) @proto_tree_add_expert_format(ptr noundef %26, ptr noundef %27, ptr noundef @ei_olsr_not_enough_bytes, ptr noundef %28, i32 noundef %29, i32 noundef %32, ptr noundef @.str.131)
  %34 = load i32, ptr %11, align 4
  store i32 %34, ptr %6, align 4
  br label %68

35:                                               ; preds = %16
  %36 = load ptr, ptr %8, align 8
  %37 = getelementptr inbounds nuw %struct._packet_info, ptr %36, i32 0, i32 16
  %38 = getelementptr inbounds nuw %struct._address, ptr %37, i32 0, i32 0
  %39 = load i32, ptr %38, align 8
  %40 = icmp eq i32 %39, 2
  br i1 %40, label %41, label %49

41:                                               ; preds = %35
  %42 = load ptr, ptr %9, align 8
  %43 = load i32, ptr @hf_olsr_neighbor_addr, align 4
  %44 = load ptr, ptr %7, align 8
  %45 = load i32, ptr %10, align 4
  %46 = call ptr @proto_tree_add_item(ptr noundef %42, i32 noundef %43, ptr noundef %44, i32 noundef %45, i32 noundef 4, i32 noundef 0)
  %47 = load i32, ptr %10, align 4
  %48 = add i32 %47, 4
  store i32 %48, ptr %10, align 4
  br label %65

49:                                               ; preds = %35
  %50 = load ptr, ptr %8, align 8
  %51 = getelementptr inbounds nuw %struct._packet_info, ptr %50, i32 0, i32 16
  %52 = getelementptr inbounds nuw %struct._address, ptr %51, i32 0, i32 0
  %53 = load i32, ptr %52, align 8
  %54 = icmp eq i32 %53, 3
  br i1 %54, label %55, label %63

55:                                               ; preds = %49
  %56 = load ptr, ptr %9, align 8
  %57 = load i32, ptr @hf_olsr_neighbor6_addr, align 4
  %58 = load ptr, ptr %7, align 8
  %59 = load i32, ptr %10, align 4
  %60 = call ptr @proto_tree_add_item(ptr noundef %56, i32 noundef %57, ptr noundef %58, i32 noundef %59, i32 noundef 16, i32 noundef 0)
  %61 = load i32, ptr %10, align 4
  %62 = add i32 %61, 16
  store i32 %62, ptr %10, align 4
  br label %64

63:                                               ; preds = %49
  br label %66

64:                                               ; preds = %55
  br label %65

65:                                               ; preds = %64, %41
  br label %12, !llvm.loop !13

66:                                               ; preds = %63, %12
  %67 = load i32, ptr %11, align 4
  store i32 %67, ptr %6, align 4
  br label %68

68:                                               ; preds = %66, %25
  %69 = load i32, ptr %6, align 4
  ret i32 %69
}