; Function Attrs: null_pointer_is_valid sspstrong uwtable
define internal noundef i32 @handle_olsr_hello_rfc(ptr noundef %0, ptr noundef %1, ptr noundef %2, i32 noundef %3, i32 noundef returned %4) #0 {
  %6 = icmp slt i32 %3, %4
  br i1 %6, label %.lr.ph, label %.loopexit

.lr.ph:                                           ; preds = %5
  %7 = getelementptr inbounds nuw i8, ptr %1, i64 212
  %8 = getelementptr inbounds nuw i8, ptr %1, i64 208
  br label %9

9:                                                ; preds = %.lr.ph, %18
  %.02327 = phi i32 [ %3, %.lr.ph ], [ %21, %18 ]
  %10 = sub i32 %4, %.02327
  %11 = load i32, ptr %7, align 4
  %12 = icmp slt i32 %10, %11
  br i1 %12, label %13, label %15

13:                                               ; preds = %9
  %14 = tail call ptr (ptr, ptr, ptr, ptr, i32, i32, ptr, ...) @proto_tree_add_expert_format(ptr noundef %2, ptr noundef %1, ptr noundef nonnull @ei_olsr_not_enough_bytes, ptr noundef %0, i32 noundef %.02327, i32 noundef %10, ptr noundef nonnull @.str.131)
  br label %.loopexit

15:                                               ; preds = %9
  %16 = load i32, ptr %8, align 8
  switch i32 %16, label %.loopexit [
    i32 2, label %18
    i32 3, label %17
  ]

17:                                               ; preds = %15
  br label %18

18:                                               ; preds = %15, %17
  %hf_olsr_neighbor6_addr.sink = phi ptr [ @hf_olsr_neighbor6_addr, %17 ], [ @hf_olsr_neighbor_addr, %15 ]
  %.sink34 = phi i32 [ 16, %17 ], [ 4, %15 ]
  %19 = load i32, ptr %hf_olsr_neighbor6_addr.sink, align 4
  %20 = tail call ptr @proto_tree_add_item(ptr noundef %2, i32 noundef %19, ptr noundef %0, i32 noundef %.02327, i32 noundef %.sink34, i32 noundef 0)
  %21 = add i32 %.02327, %.sink34
  %22 = icmp slt i32 %21, %4
  br i1 %22, label %9, label %.loopexit, !llvm.loop !13

.loopexit:                                        ; preds = %15, %18, %5, %13
  ret i32 %4
}